; Function Attrs: mustprogress noreturn uwtable
define dso_local void @_ZN5vcpkg6Checks22msg_exit_maybe_upgradeERKNS_8LineInfoERKNS_15LocalizedStringE(ptr noundef nonnull align 8 dereferenceable(16) %0, ptr noundef nonnull align 8 dereferenceable(32) %1) local_unnamed_addr #1 {
  %3 = tail call { ptr, i64 } @_ZNK5vcpkg15LocalizedStringcvNS_10StringViewEEv(ptr noundef nonnull align 8 dereferenceable(32) %1) #20
  %4 = extractvalue { ptr, i64 } %3, 0
  %5 = extractvalue { ptr, i64 } %3, 1
  tail call void @_ZN5vcpkg3msg32write_unlocalized_text_to_stderrENS_5ColorENS_10StringViewE(i8 noundef signext 49, ptr %4, i64 %5)
  tail call void @_ZN5vcpkg3msg32write_unlocalized_text_to_stderrENS_5ColorENS_10StringViewE(i8 noundef signext 0, ptr nonnull @.str.1, i64 1)
  tail call fastcc void @_ZN5vcpkgL23display_upgrade_messageEv()
  tail call void @_ZN5vcpkg6Checks9exit_failERKNS_8LineInfoE(ptr noundef nonnull align 8 dereferenceable(16) %0) #23
  unreachable
}